; Function Attrs: mustprogress uwtable
define noundef nonnull align 8 dereferenceable(8) ptr @_ZN5arrowlsERSoRKNS_10Decimal256E(ptr noundef nonnull returned align 8 dereferenceable(8) %os, ptr nocapture noundef nonnull readonly align 8 dereferenceable(32) %decimal) local_unnamed_addr #0 personality ptr @__gxx_personality_v0 {
entry:
  %abs.i = alloca %"class.arrow::Decimal256", align 8
  %ref.tmp.i = alloca %"struct.std::array.3", align 8
  %ref.tmp9.i = alloca %"struct.std::array.3", align 8
  %ref.tmp = alloca %"class.std::__cxx11::basic_string", align 8
  call void @llvm.lifetime.start.p0(i64 32, ptr nonnull %abs.i)
  call void @llvm.lifetime.start.p0(i64 32, ptr nonnull %ref.tmp.i)
  call void @llvm.lifetime.start.p0(i64 32, ptr nonnull %ref.tmp9.i)
  call void @_ZNSt7__cxx1112basic_stringIcSt11char_traitsIcESaIcEEC1Ev(ptr noundef nonnull align 8 dereferenceable(32) %ref.tmp) #18
  %arrayidx.i.i.i.i = getelementptr inbounds i8, ptr %decimal, i64 24
  %0 = load i64, ptr %arrayidx.i.i.i.i, align 8, !noalias !133
  %cmp.i.i = icmp slt i64 %0, 0
  br i1 %cmp.i.i, label %if.then.i, label %if.else.i

if.then.i:                                        ; preds = %entry
  invoke void @_ZNSt7__cxx1112basic_stringIcSt11char_traitsIcESaIcEE9push_backEc(ptr noundef nonnull align 8 dereferenceable(32) %ref.tmp, i8 noundef signext 45)
          to label %invoke.cont2.i unwind label %lpad.i

invoke.cont2.i:                                   ; preds = %if.then.i
  call void @llvm.memcpy.p0.p0.i64(ptr noundef nonnull align 8 dereferenceable(32) %abs.i, ptr noundef nonnull align 8 dereferenceable(32) %decimal, i64 32, i1 false), !noalias !133
  %call4.i = invoke noundef nonnull align 8 dereferenceable(32) ptr @_ZN5arrow15BasicDecimal2566NegateEv(ptr noundef nonnull align 8 dereferenceable(32) %abs.i)
          to label %invoke.cont3.i unwind label %lpad.i

invoke.cont3.i:                                   ; preds = %invoke.cont2.i
  call void @llvm.memcpy.p0.p0.i64(ptr noundef nonnull align 8 dereferenceable(32) %ref.tmp.i, ptr noundef nonnull align 8 dereferenceable(32) %abs.i, i64 32, i1 false), !noalias !133
  br label %if.else.invoke.i

common.resume:                                    ; preds = %lpad, %lpad.i
  %common.resume.op = phi { ptr, i32 } [ %1, %lpad.i ], [ %3, %lpad ]
  call void @_ZNSt7__cxx1112basic_stringIcSt11char_traitsIcESaIcEED1Ev(ptr noundef nonnull align 8 dereferenceable(32) %ref.tmp) #18
  resume { ptr, i32 } %common.resume.op

lpad.i:                                           ; preds = %if.else.invoke.i, %invoke.cont2.i, %if.then.i
  %1 = landingpad { ptr, i32 }
          cleanup
  br label %common.resume

if.else.i:                                        ; preds = %entry
  call void @llvm.memcpy.p0.p0.i64(ptr noundef nonnull align 8 dereferenceable(32) %ref.tmp9.i, ptr noundef nonnull align 8 dereferenceable(32) %decimal, i64 32, i1 false), !noalias !133
  br label %if.else.invoke.i

if.else.invoke.i:                                 ; preds = %if.else.i, %invoke.cont3.i
  %2 = phi ptr [ %ref.tmp9.i, %if.else.i ], [ %ref.tmp.i, %invoke.cont3.i ]
  invoke fastcc void @_ZN5arrowL31AppendLittleEndianArrayToStringILm4EEEvRKSt5arrayImXT_EEPNSt7__cxx1112basic_stringIcSt11char_traitsIcESaIcEEE(ptr noundef nonnull align 8 dereferenceable(32) %2, ptr noundef nonnull %ref.tmp)
          to label %_ZNK5arrow10Decimal25615ToIntegerStringB5cxx11Ev.exit unwind label %lpad.i

_ZNK5arrow10Decimal25615ToIntegerStringB5cxx11Ev.exit: ; preds = %if.else.invoke.i
  call void @llvm.lifetime.end.p0(i64 32, ptr nonnull %abs.i)
  call void @llvm.lifetime.end.p0(i64 32, ptr nonnull %ref.tmp.i)
  call void @llvm.lifetime.end.p0(i64 32, ptr nonnull %ref.tmp9.i)
  %call = invoke noundef nonnull align 8 dereferenceable(8) ptr @_ZStlsIcSt11char_traitsIcESaIcEERSt13basic_ostreamIT_T0_ES7_RKNSt7__cxx1112basic_stringIS4_S5_T1_EE(ptr noundef nonnull align 8 dereferenceable(8) %os, ptr noundef nonnull align 8 dereferenceable(32) %ref.tmp)
          to label %invoke.cont unwind label %lpad

invoke.cont:                                      ; preds = %_ZNK5arrow10Decimal25615ToIntegerStringB5cxx11Ev.exit
  call void @_ZNSt7__cxx1112basic_stringIcSt11char_traitsIcESaIcEED1Ev(ptr noundef nonnull align 8 dereferenceable(32) %ref.tmp) #18
  ret ptr %os

lpad:                                             ; preds = %_ZNK5arrow10Decimal25615ToIntegerStringB5cxx11Ev.exit
  %3 = landingpad { ptr, i32 }
          cleanup
  br label %common.resume
}